target datalayout = "e-m:e-p270:32:32-p271:32:32-p272:64:64-i64:64-i128:128-f80:128-n8:16:32:64-S128"
target triple = "x86_64-pc-linux-gnu"

@.str.16 = private unnamed_addr constant [4 x i8] c"%s\0A\00", align 1

; Function Attrs: nounwind uwtable
define i32 @show_dispositions(ptr noundef %0, ptr noundef %1, ptr noundef %2) #0 {
  %4 = alloca ptr, align 8
  %5 = alloca ptr, align 8
  %6 = alloca ptr, align 8
  %7 = alloca i32, align 4
  %8 = alloca ptr, align 8
  store ptr %0, ptr %4, align 8, !tbaa !4
  store ptr %1, ptr %5, align 8, !tbaa !8
  store ptr %2, ptr %6, align 8, !tbaa !8
  call void @llvm.lifetime.start.p0(i64 4, ptr %7) #11
  store i32 0, ptr %7, align 4, !tbaa !10
  br label %9

9:                                                ; preds = %23, %3
  %10 = load i32, ptr %7, align 4, !tbaa !10
  %11 = icmp slt i32 %10, 32
  br i1 %11, label %13, label %12

12:                                               ; preds = %9
  call void @llvm.lifetime.end.p0(i64 4, ptr %7) #11
  br label %26

13:                                               ; preds = %9
  call void @llvm.lifetime.start.p0(i64 8, ptr %8) #11
  %14 = load i32, ptr %7, align 4, !tbaa !10
  %15 = shl i32 1, %14
  %16 = call ptr @av_disposition_to_string(i32 noundef %15)
  store ptr %16, ptr %8, align 8, !tbaa !8
  %17 = load ptr, ptr %8, align 8, !tbaa !8
  %18 = icmp ne ptr %17, null
  br i1 %18, label %19, label %22

19:                                               ; preds = %13
  %20 = load ptr, ptr %8, align 8, !tbaa !8
  %21 = call i32 (ptr, ...) @printf(ptr noundef @.str.16, ptr noundef %20)
  br label %22

22:                                               ; preds = %19, %13
  call void @llvm.lifetime.end.p0(i64 8, ptr %8) #11
  br label %23

23:                                               ; preds = %22
  %24 = load i32, ptr %7, align 4, !tbaa !10
  %25 = add nsw i32 %24, 1
  store i32 %25, ptr %7, align 4, !tbaa !10
  br label %9, !llvm.loop !123

26:                                               ; preds = %12
  ret i32 0
}