; Function Attrs: nounwind uwtable
define noundef i32 @show_dispositions(ptr noundef readnone captures(none) %0, ptr noundef readnone captures(none) %1, ptr noundef readnone captures(none) %2) local_unnamed_addr #2 {
  br label %5

4:                                                ; preds = %9
  ret i32 0

5:                                                ; preds = %3, %9
  %.05 = phi i32 [ 0, %3 ], [ %10, %9 ]
  %6 = shl nuw i32 1, %.05
  %7 = tail call ptr @av_disposition_to_string(i32 noundef %6) #17
  %.not = icmp eq ptr %7, null
  br i1 %.not, label %9, label %8

8:                                                ; preds = %5
  %puts = tail call i32 @puts(ptr nonnull dereferenceable(1) %7)
  br label %9

9:                                                ; preds = %8, %5
  %10 = add nuw nsw i32 %.05, 1
  %exitcond.not = icmp eq i32 %10, 32
  br i1 %exitcond.not, label %4, label %5, !llvm.loop !105
}